; ModuleID = '20/1069.c'
source_filename = "20/1069.c"
target datalayout = "e-m:e-p270:32:32-p271:32:32-p272:64:64-i64:64-f80:128-n8:16:32:64-S128"
target triple = "x86_64-pc-linux-gnu"

@.str = private unnamed_addr constant [6 x i8] c"%s %s\00", align 1
@.str.1 = private unnamed_addr constant [3 x i8] c"%c\00", align 1
@.str.2 = private unnamed_addr constant [2 x i8] c"\0A\00", align 1

; Function Attrs: noinline nounwind uwtable
define dso_local i32 @main() #0 {
  %1 = alloca i32, align 4
  %2 = alloca i32, align 4
  %3 = alloca i32, align 4
  %4 = alloca i32, align 4
  %5 = alloca i32, align 4
  %6 = alloca i32, align 4
  %7 = alloca i32, align 4
  %8 = alloca i32, align 4
  %9 = alloca [12 x i8], align 1
  %10 = alloca [4 x i8], align 1
  %11 = alloca [20 x i8], align 16
  store i32 0, i32* %1, align 4
  br label %12

12:                                               ; preds = %114, %0
  %13 = getelementptr inbounds [12 x i8], [12 x i8]* %9, i64 0, i64 0
  %14 = getelementptr inbounds [4 x i8], [4 x i8]* %10, i64 0, i64 0
  %15 = call i32 (i8*, ...) @__isoc99_scanf(i8* getelementptr inbounds ([6 x i8], [6 x i8]* @.str, i64 0, i64 0), i8* %13, i8* %14)
  %16 = icmp ne i32 %15, -1
  br i1 %16, label %17, label %116

17:                                               ; preds = %12
  store i32 0, i32* %7, align 4
  %18 = getelementptr inbounds [12 x i8], [12 x i8]* %9, i64 0, i64 0
  %19 = call i64 @strlen(i8* %18) #3
  %20 = trunc i64 %19 to i32
  store i32 %20, i32* %2, align 4
  store i32 1, i32* %4, align 4
  br label %21

21:                                               ; preds = %40, %17
  %22 = load i32, i32* %4, align 4
  %23 = load i32, i32* %2, align 4
  %24 = icmp slt i32 %22, %23
  br i1 %24, label %25, label %43

25:                                               ; preds = %21
  %26 = load i32, i32* %4, align 4
  %27 = sext i32 %26 to i64
  %28 = getelementptr inbounds [12 x i8], [12 x i8]* %9, i64 0, i64 %27
  %29 = load i8, i8* %28, align 1
  %30 = sext i8 %29 to i32
  %31 = load i32, i32* %7, align 4
  %32 = sext i32 %31 to i64
  %33 = getelementptr inbounds [12 x i8], [12 x i8]* %9, i64 0, i64 %32
  %34 = load i8, i8* %33, align 1
  %35 = sext i8 %34 to i32
  %36 = icmp sgt i32 %30, %35
  br i1 %36, label %37, label %39

37:                                               ; preds = %25
  %38 = load i32, i32* %4, align 4
  store i32 %38, i32* %7, align 4
  br label %39

39:                                               ; preds = %37, %25
  br label %40

40:                                               ; preds = %39
  %41 = load i32, i32* %4, align 4
  %42 = add nsw i32 %41, 1
  store i32 %42, i32* %4, align 4
  br label %21

43:                                               ; preds = %21
  store i32 0, i32* %4, align 4
  br label %44

44:                                               ; preds = %57, %43
  %45 = load i32, i32* %4, align 4
  %46 = load i32, i32* %7, align 4
  %47 = add nsw i32 %46, 1
  %48 = icmp slt i32 %45, %47
  br i1 %48, label %49, label %60

49:                                               ; preds = %44
  %50 = load i32, i32* %4, align 4
  %51 = sext i32 %50 to i64
  %52 = getelementptr inbounds [12 x i8], [12 x i8]* %9, i64 0, i64 %51
  %53 = load i8, i8* %52, align 1
  %54 = load i32, i32* %4, align 4
  %55 = sext i32 %54 to i64
  %56 = getelementptr inbounds [20 x i8], [20 x i8]* %11, i64 0, i64 %55
  store i8 %53, i8* %56, align 1
  br label %57

57:                                               ; preds = %49
  %58 = load i32, i32* %4, align 4
  %59 = add nsw i32 %58, 1
  store i32 %59, i32* %4, align 4
  br label %44

60:                                               ; preds = %44
  %61 = getelementptr inbounds [4 x i8], [4 x i8]* %10, i64 0, i64 0
  %62 = load i8, i8* %61, align 1
  %63 = load i32, i32* %7, align 4
  %64 = add nsw i32 %63, 1
  %65 = sext i32 %64 to i64
  %66 = getelementptr inbounds [20 x i8], [20 x i8]* %11, i64 0, i64 %65
  store i8 %62, i8* %66, align 1
  %67 = getelementptr inbounds [4 x i8], [4 x i8]* %10, i64 0, i64 1
  %68 = load i8, i8* %67, align 1
  %69 = load i32, i32* %7, align 4
  %70 = add nsw i32 %69, 2
  %71 = sext i32 %70 to i64
  %72 = getelementptr inbounds [20 x i8], [20 x i8]* %11, i64 0, i64 %71
  store i8 %68, i8* %72, align 1
  %73 = getelementptr inbounds [4 x i8], [4 x i8]* %10, i64 0, i64 2
  %74 = load i8, i8* %73, align 1
  %75 = load i32, i32* %7, align 4
  %76 = add nsw i32 %75, 3
  %77 = sext i32 %76 to i64
  %78 = getelementptr inbounds [20 x i8], [20 x i8]* %11, i64 0, i64 %77
  store i8 %74, i8* %78, align 1
  %79 = load i32, i32* %7, align 4
  %80 = add nsw i32 %79, 4
  store i32 %80, i32* %4, align 4
  br label %81

81:                                               ; preds = %95, %60
  %82 = load i32, i32* %4, align 4
  %83 = load i32, i32* %2, align 4
  %84 = add nsw i32 %83, 4
  %85 = icmp slt i32 %82, %84
  br i1 %85, label %86, label %98

86:                                               ; preds = %81
  %87 = load i32, i32* %4, align 4
  %88 = sub nsw i32 %87, 3
  %89 = sext i32 %88 to i64
  %90 = getelementptr inbounds [12 x i8], [12 x i8]* %9, i64 0, i64 %89
  %91 = load i8, i8* %90, align 1
  %92 = load i32, i32* %4, align 4
  %93 = sext i32 %92 to i64
  %94 = getelementptr inbounds [20 x i8], [20 x i8]* %11, i64 0, i64 %93
  store i8 %91, i8* %94, align 1
  br label %95

95:                                               ; preds = %86
  %96 = load i32, i32* %4, align 4
  %97 = add nsw i32 %96, 1
  store i32 %97, i32* %4, align 4
  br label %81

98:                                               ; preds = %81
  store i32 0, i32* %4, align 4
  br label %99

99:                                               ; preds = %111, %98
  %100 = load i32, i32* %4, align 4
  %101 = load i32, i32* %2, align 4
  %102 = add nsw i32 %101, 3
  %103 = icmp slt i32 %100, %102
  br i1 %103, label %104, label %114

104:                                              ; preds = %99
  %105 = load i32, i32* %4, align 4
  %106 = sext i32 %105 to i64
  %107 = getelementptr inbounds [20 x i8], [20 x i8]* %11, i64 0, i64 %106
  %108 = load i8, i8* %107, align 1
  %109 = sext i8 %108 to i32
  %110 = call i32 (i8*, ...) @printf(i8* getelementptr inbounds ([3 x i8], [3 x i8]* @.str.1, i64 0, i64 0), i32 %109)
  br label %111

111:                                              ; preds = %104
  %112 = load i32, i32* %4, align 4
  %113 = add nsw i32 %112, 1
  store i32 %113, i32* %4, align 4
  br label %99

114:                                              ; preds = %99
  %115 = call i32 (i8*, ...) @printf(i8* getelementptr inbounds ([2 x i8], [2 x i8]* @.str.2, i64 0, i64 0))
  br label %12

116:                                              ; preds = %12
  %117 = load i32, i32* %1, align 4
  ret i32 %117
}

declare dso_local i32 @__isoc99_scanf(i8*, ...) #1

; Function Attrs: nounwind readonly
declare dso_local i64 @strlen(i8*) #2

declare dso_local i32 @printf(i8*, ...) #1


!llvm.module.flags = !{!0}
!llvm.ident = !{!1}

!0 = !{i32 1, !"wchar_size", i32 4}
!1 = !{!"clang version 10.0.0-4ubuntu1 "}
